; Function Attrs: nounwind uwtable
define i32 @Dch_ClassesRefine(ptr noundef captures(none) %0) local_unnamed_addr #0 {
  %2 = load ptr, ptr %0, align 8, !tbaa !3
  %3 = getelementptr i8, ptr %2, i64 32
  %.val10 = load ptr, ptr %3, align 8, !tbaa !14
  %4 = getelementptr i8, ptr %.val10, i64 4
  %.val.val11 = load i32, ptr %4, align 4, !tbaa !24
  %5 = icmp sgt i32 %.val.val11, 0
  br i1 %5, label %.lr.ph, label %._crit_edge

.lr.ph:                                           ; preds = %1
  %6 = getelementptr inbounds nuw i8, ptr %0, i64 8
  br label %7

7:                                                ; preds = %.lr.ph, %17
  %8 = phi ptr [ %2, %.lr.ph ], [ %18, %17 ]
  %indvars.iv = phi i64 [ 0, %.lr.ph ], [ %indvars.iv.next, %17 ]
  %.013 = phi i32 [ 0, %.lr.ph ], [ %.1, %17 ]
  %9 = load ptr, ptr %6, align 8, !tbaa !26
  %10 = getelementptr inbounds nuw ptr, ptr %9, i64 %indvars.iv
  %11 = load ptr, ptr %10, align 8, !tbaa !40
  %12 = icmp eq ptr %11, null
  br i1 %12, label %17, label %13

13:                                               ; preds = %7
  %14 = load ptr, ptr %11, align 8, !tbaa !41
  %15 = tail call i32 @Dch_ClassesRefineOneClass(ptr noundef nonnull %0, ptr noundef %14, i32 noundef 0)
  %16 = add nsw i32 %15, %.013
  %.pre = load ptr, ptr %0, align 8, !tbaa !3
  br label %17

17:                                               ; preds = %13, %7
  %18 = phi ptr [ %8, %7 ], [ %.pre, %13 ]
  %.1 = phi i32 [ %.013, %7 ], [ %16, %13 ]
  %indvars.iv.next = add nuw nsw i64 %indvars.iv, 1
  %19 = getelementptr i8, ptr %18, i64 32
  %.val = load ptr, ptr %19, align 8, !tbaa !14
  %20 = getelementptr i8, ptr %.val, i64 4
  %.val.val = load i32, ptr %20, align 4, !tbaa !24
  %21 = sext i32 %.val.val to i64
  %22 = icmp slt i64 %indvars.iv.next, %21
  br i1 %22, label %7, label %._crit_edge, !llvm.loop !62

._crit_edge:                                      ; preds = %17, %1
  %.0.lcssa = phi i32 [ 0, %1 ], [ %.1, %17 ]
  ret i32 %.0.lcssa
}